; Function Attrs: mustprogress nofree norecurse nosync nounwind willreturn memory(argmem: read) uwtable
define noundef zeroext i1 @_ZNK8proxygen11HeaderTableeqERKS0_(ptr nocapture noundef nonnull readonly align 8 dereferenceable(80) %this, ptr nocapture noundef nonnull readonly align 8 dereferenceable(80) %other) local_unnamed_addr #7 align 2 {
entry:
  %size_.i = getelementptr inbounds i8, ptr %this, i64 40
  %0 = load i32, ptr %size_.i, align 8
  %size_.i2 = getelementptr inbounds i8, ptr %other, i64 40
  %1 = load i32, ptr %size_.i2, align 8
  %cmp.not = icmp eq i32 %0, %1
  %bytes_.i = getelementptr inbounds i8, ptr %this, i64 12
  %2 = load i32, ptr %bytes_.i, align 4
  %bytes_.i3 = getelementptr inbounds i8, ptr %other, i64 12
  %3 = load i32, ptr %bytes_.i3, align 4
  %cmp5.not = icmp eq i32 %2, %3
  %retval.0 = select i1 %cmp.not, i1 %cmp5.not, i1 false
  ret i1 %retval.0
}